target datalayout = "e-m:e-p270:32:32-p271:32:32-p272:64:64-i64:64-i128:128-f80:128-n8:16:32:64-S128"
target triple = "x86_64-pc-linux-gnu"

%class.Register = type { i32 }
%class.XMMRegister = type { i32 }
%class.KRegister = type { i32 }
%class.MachNode = type { %class.Node.base, i8, i16, ptr }
%class.Node.base = type <{ ptr, ptr, ptr, i32, i32, i32, i32, i32, i32, i32 }>
%class.string_compareUNode = type { %class.MachNode, [6 x ptr] }

@_ZL5noreg = internal constant %class.Register { i32 -1 }, align 4
@_ZL6xnoreg = internal constant %class.XMMRegister { i32 -1 }, align 4
@_ZL6knoreg = internal constant %class.KRegister { i32 -1 }, align 4

; Function Attrs: mustprogress nounwind uwtable
define linkonce_odr hidden void @_ZN11XMMRegisterC2Eib(ptr noundef nonnull align 4 dereferenceable(4) %0, i32 noundef %1, i1 noundef zeroext %2) unnamed_addr #1 comdat align 2 {
  %4 = alloca ptr, align 8
  %5 = alloca i32, align 4
  %6 = alloca i8, align 1
  store ptr %0, ptr %4, align 8
  store i32 %1, ptr %5, align 4
  %7 = zext i1 %2 to i8
  store i8 %7, ptr %6, align 1
  %8 = load ptr, ptr %4, align 8
  %9 = getelementptr inbounds %class.XMMRegister, ptr %8, i32 0, i32 0
  %10 = load i32, ptr %5, align 4
  store i32 %10, ptr %9, align 4
  ret void
}

; Function Attrs: mustprogress nounwind uwtable
define linkonce_odr hidden void @_ZN8RegisterC2Eib(ptr noundef nonnull align 4 dereferenceable(4) %0, i32 noundef %1, i1 noundef zeroext %2) unnamed_addr #1 comdat align 2 {
  %4 = alloca ptr, align 8
  %5 = alloca i32, align 4
  %6 = alloca i8, align 1
  store ptr %0, ptr %4, align 8
  store i32 %1, ptr %5, align 4
  %7 = zext i1 %2 to i8
  store i8 %7, ptr %6, align 1
  %8 = load ptr, ptr %4, align 8
  %9 = getelementptr inbounds %class.Register, ptr %8, i32 0, i32 0
  %10 = load i32, ptr %5, align 4
  store i32 %10, ptr %9, align 4
  ret void
}

; Function Attrs: mustprogress nounwind uwtable
define linkonce_odr hidden i32 @_Z14as_XMMRegisteri(i32 noundef %0) #1 comdat {
  %2 = alloca %class.XMMRegister, align 4
  %3 = alloca i32, align 4
  store i32 %0, ptr %3, align 4
  %4 = load i32, ptr %3, align 4
  %5 = icmp sle i32 0, %4
  br i1 %5, label %6, label %11

6:                                                ; preds = %1
  %7 = load i32, ptr %3, align 4
  %8 = icmp slt i32 %7, 32
  br i1 %8, label %9, label %11

9:                                                ; preds = %6
  %10 = load i32, ptr %3, align 4
  call void @_ZN11XMMRegisterC2Eib(ptr noundef nonnull align 4 dereferenceable(4) %2, i32 noundef %10, i1 noundef zeroext false)
  br label %12

11:                                               ; preds = %6, %1
  call void @llvm.memcpy.p0.p0.i64(ptr align 4 %2, ptr align 4 @_ZL6xnoreg, i64 4, i1 false)
  br label %12

12:                                               ; preds = %11, %9
  %13 = getelementptr inbounds %class.XMMRegister, ptr %2, i32 0, i32 0
  %14 = load i32, ptr %13, align 4
  ret i32 %14
}

; Function Attrs: mustprogress nounwind uwtable
define linkonce_odr hidden i32 @_Z11as_Registeri(i32 noundef %0) #1 comdat {
  %2 = alloca %class.Register, align 4
  %3 = alloca i32, align 4
  store i32 %0, ptr %3, align 4
  %4 = load i32, ptr %3, align 4
  %5 = icmp sle i32 0, %4
  br i1 %5, label %6, label %11

6:                                                ; preds = %1
  %7 = load i32, ptr %3, align 4
  %8 = icmp slt i32 %7, 32
  br i1 %8, label %9, label %11

9:                                                ; preds = %6
  %10 = load i32, ptr %3, align 4
  call void @_ZN8RegisterC2Eib(ptr noundef nonnull align 4 dereferenceable(4) %2, i32 noundef %10, i1 noundef zeroext false)
  br label %12

11:                                               ; preds = %6, %1
  call void @llvm.memcpy.p0.p0.i64(ptr align 4 %2, ptr align 4 @_ZL5noreg, i64 4, i1 false)
  br label %12

12:                                               ; preds = %11, %9
  %13 = getelementptr inbounds %class.Register, ptr %2, i32 0, i32 0
  %14 = load i32, ptr %13, align 4
  ret i32 %14
}

; Function Attrs: mustprogress nounwind uwtable
define linkonce_odr hidden i32 @_ZNK8MachOper14as_XMMRegisterEP13PhaseRegAllocPK4Nodei(ptr noundef nonnull align 8 dereferenceable(8) %0, ptr noundef %1, ptr noundef %2, i32 noundef %3) #1 comdat align 2 {
  %5 = alloca %class.XMMRegister, align 4
  %6 = alloca ptr, align 8
  %7 = alloca ptr, align 8
  %8 = alloca ptr, align 8
  %9 = alloca i32, align 4
  store ptr %0, ptr %6, align 8
  store ptr %1, ptr %7, align 8
  store ptr %2, ptr %8, align 8
  store i32 %3, ptr %9, align 4
  %10 = load ptr, ptr %6, align 8
  %11 = load ptr, ptr %7, align 8
  %12 = load ptr, ptr %8, align 8
  %13 = load i32, ptr %9, align 4
  %14 = load ptr, ptr %10, align 8
  %15 = getelementptr inbounds ptr, ptr %14, i64 5
  %16 = load ptr, ptr %15, align 8
  %17 = call noundef i32 %16(ptr noundef nonnull align 8 dereferenceable(8) %10, ptr noundef %11, ptr noundef %12, i32 noundef %13)
  %18 = call i32 @_Z14as_XMMRegisteri(i32 noundef %17)
  %19 = getelementptr inbounds %class.XMMRegister, ptr %5, i32 0, i32 0
  store i32 %18, ptr %19, align 4
  %20 = getelementptr inbounds %class.XMMRegister, ptr %5, i32 0, i32 0
  %21 = load i32, ptr %20, align 4
  ret i32 %21
}

; Function Attrs: mustprogress nounwind uwtable
define linkonce_odr hidden i32 @_ZNK8MachOper11as_RegisterEP13PhaseRegAllocPK4Node(ptr noundef nonnull align 8 dereferenceable(8) %0, ptr noundef %1, ptr noundef %2) #1 comdat align 2 {
  %4 = alloca %class.Register, align 4
  %5 = alloca ptr, align 8
  %6 = alloca ptr, align 8
  %7 = alloca ptr, align 8
  store ptr %0, ptr %5, align 8
  store ptr %1, ptr %6, align 8
  store ptr %2, ptr %7, align 8
  %8 = load ptr, ptr %5, align 8
  %9 = load ptr, ptr %6, align 8
  %10 = load ptr, ptr %7, align 8
  %11 = load ptr, ptr %8, align 8
  %12 = getelementptr inbounds ptr, ptr %11, i64 4
  %13 = load ptr, ptr %12, align 8
  %14 = call noundef i32 %13(ptr noundef nonnull align 8 dereferenceable(8) %8, ptr noundef %9, ptr noundef %10)
  %15 = call i32 @_Z11as_Registeri(i32 noundef %14)
  %16 = getelementptr inbounds %class.Register, ptr %4, i32 0, i32 0
  store i32 %15, ptr %16, align 4
  %17 = getelementptr inbounds %class.Register, ptr %4, i32 0, i32 0
  %18 = load i32, ptr %17, align 4
  ret i32 %18
}

; Function Attrs: mustprogress nounwind uwtable
define linkonce_odr hidden i32 @_ZNK8MachOper11as_RegisterEP13PhaseRegAllocPK4Nodei(ptr noundef nonnull align 8 dereferenceable(8) %0, ptr noundef %1, ptr noundef %2, i32 noundef %3) #1 comdat align 2 {
  %5 = alloca %class.Register, align 4
  %6 = alloca ptr, align 8
  %7 = alloca ptr, align 8
  %8 = alloca ptr, align 8
  %9 = alloca i32, align 4
  store ptr %0, ptr %6, align 8
  store ptr %1, ptr %7, align 8
  store ptr %2, ptr %8, align 8
  store i32 %3, ptr %9, align 4
  %10 = load ptr, ptr %6, align 8
  %11 = load ptr, ptr %7, align 8
  %12 = load ptr, ptr %8, align 8
  %13 = load i32, ptr %9, align 4
  %14 = load ptr, ptr %10, align 8
  %15 = getelementptr inbounds ptr, ptr %14, i64 5
  %16 = load ptr, ptr %15, align 8
  %17 = call noundef i32 %16(ptr noundef nonnull align 8 dereferenceable(8) %10, ptr noundef %11, ptr noundef %12, i32 noundef %13)
  %18 = call i32 @_Z11as_Registeri(i32 noundef %17)
  %19 = getelementptr inbounds %class.Register, ptr %5, i32 0, i32 0
  store i32 %18, ptr %19, align 4
  %20 = getelementptr inbounds %class.Register, ptr %5, i32 0, i32 0
  %21 = load i32, ptr %20, align 4
  ret i32 %21
}

; Function Attrs: mustprogress nounwind uwtable
define linkonce_odr hidden noundef ptr @_ZNK19string_compareUNode10opnd_arrayEj(ptr noundef nonnull align 8 dereferenceable(112) %0, i32 noundef %1) #1 comdat align 2 {
  %3 = alloca ptr, align 8
  %4 = alloca i32, align 4
  store ptr %0, ptr %3, align 8
  store i32 %1, ptr %4, align 4
  %5 = load ptr, ptr %3, align 8
  %6 = getelementptr inbounds %class.string_compareUNode, ptr %5, i32 0, i32 1
  %7 = load i32, ptr %4, align 4
  %8 = zext i32 %7 to i64
  %9 = getelementptr inbounds [6 x ptr], ptr %6, i64 0, i64 %8
  %10 = load ptr, ptr %9, align 8
  ret ptr %10
}

; Function Attrs: mustprogress nounwind uwtable
define hidden void @_ZNK19string_compareUNode4emitEP17C2_MacroAssemblerP13PhaseRegAlloc(ptr noundef nonnull align 8 dereferenceable(112) %0, ptr noundef %1, ptr noundef %2) unnamed_addr #1 align 2 {
  %4 = alloca ptr, align 8
  %5 = alloca ptr, align 8
  %6 = alloca ptr, align 8
  %7 = alloca i32, align 4
  %8 = alloca i32, align 4
  %9 = alloca i32, align 4
  %10 = alloca i32, align 4
  %11 = alloca i32, align 4
  %12 = alloca i32, align 4
  %13 = alloca %class.Register, align 4
  %14 = alloca %class.Register, align 4
  %15 = alloca %class.Register, align 4
  %16 = alloca %class.Register, align 4
  %17 = alloca %class.Register, align 4
  %18 = alloca %class.XMMRegister, align 4
  %19 = alloca %class.KRegister, align 4
  store ptr %0, ptr %4, align 8
  store ptr %1, ptr %5, align 8
  store ptr %2, ptr %6, align 8
  %20 = load ptr, ptr %4, align 8
  store i32 2, ptr %7, align 4
  store i32 2, ptr %8, align 4
  %21 = load i32, ptr %8, align 4
  %22 = call noundef ptr @_ZNK19string_compareUNode10opnd_arrayEj(ptr noundef nonnull align 8 dereferenceable(112) %20, i32 noundef 1)
  %23 = load ptr, ptr %22, align 8
  %24 = getelementptr inbounds ptr, ptr %23, i64 1
  %25 = load ptr, ptr %24, align 8
  %26 = call noundef i32 %25(ptr noundef nonnull align 8 dereferenceable(8) %22)
  %27 = add i32 %21, %26
  store i32 %27, ptr %9, align 4
  %28 = load i32, ptr %9, align 4
  %29 = call noundef ptr @_ZNK19string_compareUNode10opnd_arrayEj(ptr noundef nonnull align 8 dereferenceable(112) %20, i32 noundef 2)
  %30 = load ptr, ptr %29, align 8
  %31 = getelementptr inbounds ptr, ptr %30, i64 1
  %32 = load ptr, ptr %31, align 8
  %33 = call noundef i32 %32(ptr noundef nonnull align 8 dereferenceable(8) %29)
  %34 = add i32 %28, %33
  store i32 %34, ptr %10, align 4
  %35 = load i32, ptr %10, align 4
  %36 = call noundef ptr @_ZNK19string_compareUNode10opnd_arrayEj(ptr noundef nonnull align 8 dereferenceable(112) %20, i32 noundef 3)
  %37 = load ptr, ptr %36, align 8
  %38 = getelementptr inbounds ptr, ptr %37, i64 1
  %39 = load ptr, ptr %38, align 8
  %40 = call noundef i32 %39(ptr noundef nonnull align 8 dereferenceable(8) %36)
  %41 = add i32 %35, %40
  store i32 %41, ptr %11, align 4
  %42 = load i32, ptr %11, align 4
  %43 = call noundef ptr @_ZNK19string_compareUNode10opnd_arrayEj(ptr noundef nonnull align 8 dereferenceable(112) %20, i32 noundef 4)
  %44 = load ptr, ptr %43, align 8
  %45 = getelementptr inbounds ptr, ptr %44, i64 1
  %46 = load ptr, ptr %45, align 8
  %47 = call noundef i32 %46(ptr noundef nonnull align 8 dereferenceable(8) %43)
  %48 = add i32 %42, %47
  store i32 %48, ptr %12, align 4
  %49 = load ptr, ptr %5, align 8
  %50 = call noundef ptr @_ZNK19string_compareUNode10opnd_arrayEj(ptr noundef nonnull align 8 dereferenceable(112) %20, i32 noundef 1)
  %51 = load ptr, ptr %6, align 8
  %52 = load i32, ptr %8, align 4
  %53 = call i32 @_ZNK8MachOper11as_RegisterEP13PhaseRegAllocPK4Nodei(ptr noundef nonnull align 8 dereferenceable(8) %50, ptr noundef %51, ptr noundef %20, i32 noundef %52)
  %54 = getelementptr inbounds %class.Register, ptr %13, i32 0, i32 0
  store i32 %53, ptr %54, align 4
  %55 = call noundef ptr @_ZNK19string_compareUNode10opnd_arrayEj(ptr noundef nonnull align 8 dereferenceable(112) %20, i32 noundef 3)
  %56 = load ptr, ptr %6, align 8
  %57 = load i32, ptr %10, align 4
  %58 = call i32 @_ZNK8MachOper11as_RegisterEP13PhaseRegAllocPK4Nodei(ptr noundef nonnull align 8 dereferenceable(8) %55, ptr noundef %56, ptr noundef %20, i32 noundef %57)
  %59 = getelementptr inbounds %class.Register, ptr %14, i32 0, i32 0
  store i32 %58, ptr %59, align 4
  %60 = call noundef ptr @_ZNK19string_compareUNode10opnd_arrayEj(ptr noundef nonnull align 8 dereferenceable(112) %20, i32 noundef 2)
  %61 = load ptr, ptr %6, align 8
  %62 = load i32, ptr %9, align 4
  %63 = call i32 @_ZNK8MachOper11as_RegisterEP13PhaseRegAllocPK4Nodei(ptr noundef nonnull align 8 dereferenceable(8) %60, ptr noundef %61, ptr noundef %20, i32 noundef %62)
  %64 = getelementptr inbounds %class.Register, ptr %15, i32 0, i32 0
  store i32 %63, ptr %64, align 4
  %65 = call noundef ptr @_ZNK19string_compareUNode10opnd_arrayEj(ptr noundef nonnull align 8 dereferenceable(112) %20, i32 noundef 4)
  %66 = load ptr, ptr %6, align 8
  %67 = load i32, ptr %11, align 4
  %68 = call i32 @_ZNK8MachOper11as_RegisterEP13PhaseRegAllocPK4Nodei(ptr noundef nonnull align 8 dereferenceable(8) %65, ptr noundef %66, ptr noundef %20, i32 noundef %67)
  %69 = getelementptr inbounds %class.Register, ptr %16, i32 0, i32 0
  store i32 %68, ptr %69, align 4
  %70 = call noundef ptr @_ZNK19string_compareUNode10opnd_arrayEj(ptr noundef nonnull align 8 dereferenceable(112) %20, i32 noundef 0)
  %71 = load ptr, ptr %6, align 8
  %72 = call i32 @_ZNK8MachOper11as_RegisterEP13PhaseRegAllocPK4Node(ptr noundef nonnull align 8 dereferenceable(8) %70, ptr noundef %71, ptr noundef %20)
  %73 = getelementptr inbounds %class.Register, ptr %17, i32 0, i32 0
  store i32 %72, ptr %73, align 4
  %74 = call noundef ptr @_ZNK19string_compareUNode10opnd_arrayEj(ptr noundef nonnull align 8 dereferenceable(112) %20, i32 noundef 5)
  %75 = load ptr, ptr %6, align 8
  %76 = load i32, ptr %12, align 4
  %77 = call i32 @_ZNK8MachOper14as_XMMRegisterEP13PhaseRegAllocPK4Nodei(ptr noundef nonnull align 8 dereferenceable(8) %74, ptr noundef %75, ptr noundef %20, i32 noundef %76)
  %78 = getelementptr inbounds %class.XMMRegister, ptr %18, i32 0, i32 0
  store i32 %77, ptr %78, align 4
  call void @llvm.memcpy.p0.p0.i64(ptr align 4 %19, ptr align 4 @_ZL6knoreg, i64 4, i1 false)
  %79 = getelementptr inbounds %class.Register, ptr %13, i32 0, i32 0
  %80 = load i32, ptr %79, align 4
  %81 = getelementptr inbounds %class.Register, ptr %14, i32 0, i32 0
  %82 = load i32, ptr %81, align 4
  %83 = getelementptr inbounds %class.Register, ptr %15, i32 0, i32 0
  %84 = load i32, ptr %83, align 4
  %85 = getelementptr inbounds %class.Register, ptr %16, i32 0, i32 0
  %86 = load i32, ptr %85, align 4
  %87 = getelementptr inbounds %class.Register, ptr %17, i32 0, i32 0
  %88 = load i32, ptr %87, align 4
  %89 = getelementptr inbounds %class.XMMRegister, ptr %18, i32 0, i32 0
  %90 = load i32, ptr %89, align 4
  %91 = getelementptr inbounds %class.KRegister, ptr %19, i32 0, i32 0
  %92 = load i32, ptr %91, align 4
  call void @_ZN17C2_MacroAssembler14string_compareE8RegisterS0_S0_S0_S0_11XMMRegisteri9KRegister(ptr noundef nonnull align 8 dereferenceable(40) %49, i32 %80, i32 %82, i32 %84, i32 %86, i32 %88, i32 %90, i32 noundef 3, i32 %92)
  ret void
}