; Function Attrs: mustprogress nounwind uwtable
define hidden void @_ZNK19string_compareUNode4emitEP17C2_MacroAssemblerP13PhaseRegAlloc(ptr noundef nonnull align 8 dereferenceable(112) %0, ptr noundef %1, ptr noundef %2) unnamed_addr #3 align 2 {
  %4 = getelementptr inbounds i8, ptr %0, i64 64
  %5 = getelementptr inbounds i8, ptr %0, i64 72
  %6 = load ptr, ptr %5, align 8
  %7 = load ptr, ptr %6, align 8
  %8 = getelementptr inbounds i8, ptr %7, i64 8
  %9 = load ptr, ptr %8, align 8
  %10 = tail call noundef i32 %9(ptr noundef nonnull align 8 dereferenceable(8) %6) #23
  %11 = add i32 %10, 2
  %12 = getelementptr inbounds i8, ptr %0, i64 80
  %13 = load ptr, ptr %12, align 8
  %14 = load ptr, ptr %13, align 8
  %15 = getelementptr inbounds i8, ptr %14, i64 8
  %16 = load ptr, ptr %15, align 8
  %17 = tail call noundef i32 %16(ptr noundef nonnull align 8 dereferenceable(8) %13) #23
  %18 = add i32 %17, %11
  %19 = getelementptr inbounds i8, ptr %0, i64 88
  %20 = load ptr, ptr %19, align 8
  %21 = load ptr, ptr %20, align 8
  %22 = getelementptr inbounds i8, ptr %21, i64 8
  %23 = load ptr, ptr %22, align 8
  %24 = tail call noundef i32 %23(ptr noundef nonnull align 8 dereferenceable(8) %20) #23
  %25 = add i32 %24, %18
  %26 = getelementptr inbounds i8, ptr %0, i64 96
  %27 = load ptr, ptr %26, align 8
  %28 = load ptr, ptr %27, align 8
  %29 = getelementptr inbounds i8, ptr %28, i64 8
  %30 = load ptr, ptr %29, align 8
  %31 = tail call noundef i32 %30(ptr noundef nonnull align 8 dereferenceable(8) %27) #23
  %32 = add i32 %31, %25
  %33 = load ptr, ptr %5, align 8
  %34 = load ptr, ptr %33, align 8
  %35 = getelementptr inbounds i8, ptr %34, i64 40
  %36 = load ptr, ptr %35, align 8
  %37 = tail call noundef i32 %36(ptr noundef nonnull align 8 dereferenceable(8) %33, ptr noundef %2, ptr noundef nonnull %0, i32 noundef 2) #23
  %or.cond.i.i = icmp ult i32 %37, 32
  %spec.select.i.i = select i1 %or.cond.i.i, i32 %37, i32 -1
  %38 = load ptr, ptr %19, align 8
  %39 = load ptr, ptr %38, align 8
  %40 = getelementptr inbounds i8, ptr %39, i64 40
  %41 = load ptr, ptr %40, align 8
  %42 = tail call noundef i32 %41(ptr noundef nonnull align 8 dereferenceable(8) %38, ptr noundef %2, ptr noundef nonnull %0, i32 noundef %18) #23
  %or.cond.i.i22 = icmp ult i32 %42, 32
  %spec.select.i.i23 = select i1 %or.cond.i.i22, i32 %42, i32 -1
  %43 = load ptr, ptr %12, align 8
  %44 = load ptr, ptr %43, align 8
  %45 = getelementptr inbounds i8, ptr %44, i64 40
  %46 = load ptr, ptr %45, align 8
  %47 = tail call noundef i32 %46(ptr noundef nonnull align 8 dereferenceable(8) %43, ptr noundef %2, ptr noundef nonnull %0, i32 noundef %11) #23
  %or.cond.i.i24 = icmp ult i32 %47, 32
  %spec.select.i.i25 = select i1 %or.cond.i.i24, i32 %47, i32 -1
  %48 = load ptr, ptr %26, align 8
  %49 = load ptr, ptr %48, align 8
  %50 = getelementptr inbounds i8, ptr %49, i64 40
  %51 = load ptr, ptr %50, align 8
  %52 = tail call noundef i32 %51(ptr noundef nonnull align 8 dereferenceable(8) %48, ptr noundef %2, ptr noundef nonnull %0, i32 noundef %25) #23
  %or.cond.i.i26 = icmp ult i32 %52, 32
  %spec.select.i.i27 = select i1 %or.cond.i.i26, i32 %52, i32 -1
  %53 = load ptr, ptr %4, align 8
  %54 = load ptr, ptr %53, align 8
  %55 = getelementptr inbounds i8, ptr %54, i64 32
  %56 = load ptr, ptr %55, align 8
  %57 = tail call noundef i32 %56(ptr noundef nonnull align 8 dereferenceable(8) %53, ptr noundef %2, ptr noundef nonnull %0) #23
  %or.cond.i.i28 = icmp ult i32 %57, 32
  %spec.select.i.i29 = select i1 %or.cond.i.i28, i32 %57, i32 -1
  %58 = getelementptr inbounds i8, ptr %0, i64 104
  %59 = load ptr, ptr %58, align 8
  %60 = load ptr, ptr %59, align 8
  %61 = getelementptr inbounds i8, ptr %60, i64 40
  %62 = load ptr, ptr %61, align 8
  %63 = tail call noundef i32 %62(ptr noundef nonnull align 8 dereferenceable(8) %59, ptr noundef %2, ptr noundef nonnull %0, i32 noundef %32) #23
  %or.cond.i.i30 = icmp ult i32 %63, 32
  %spec.select.i.i31 = select i1 %or.cond.i.i30, i32 %63, i32 -1
  tail call void @_ZN17C2_MacroAssembler14string_compareE8RegisterS0_S0_S0_S0_11XMMRegisteri9KRegister(ptr noundef nonnull align 8 dereferenceable(40) %1, i32 %spec.select.i.i, i32 %spec.select.i.i23, i32 %spec.select.i.i25, i32 %spec.select.i.i27, i32 %spec.select.i.i29, i32 %spec.select.i.i31, i32 noundef 3, i32 -1) #23
  ret void
}